target datalayout = "e-m:e-p270:32:32-p271:32:32-p272:64:64-i64:64-i128:128-f80:128-n8:16:32:64-S128"
target triple = "x86_64-unknown-linux-gnu"

@stderr = external global ptr, align 8
@.str.16 = private unnamed_addr constant [37 x i8] c"Unable to allocate %zu megabytes: %s\00", align 1

; Function Attrs: nounwind uwtable
define dso_local void @memtest_alloc_and_test(i64 noundef %megabytes, i32 noundef %passes) #0 {
entry:
  %megabytes.addr = alloca i64, align 8
  %passes.addr = alloca i32, align 4
  %bytes = alloca i64, align 8
  %m = alloca ptr, align 8
  store i64 %megabytes, ptr %megabytes.addr, align 8
  store i32 %passes, ptr %passes.addr, align 4
  %0 = load i64, ptr %megabytes.addr, align 8
  %mul = mul i64 %0, 1024
  %mul1 = mul i64 %mul, 1024
  store i64 %mul1, ptr %bytes, align 8
  %1 = load i64, ptr %bytes, align 8
  %call = call noalias ptr @malloc(i64 noundef %1) #8
  store ptr %call, ptr %m, align 8
  %2 = load ptr, ptr %m, align 8
  %cmp = icmp eq ptr %2, null
  br i1 %cmp, label %if.then, label %if.end

if.then:                                          ; preds = %entry
  %3 = load ptr, ptr @stderr, align 8
  %4 = load i64, ptr %megabytes.addr, align 8
  %call2 = call ptr @__errno_location() #9
  %5 = load i32, ptr %call2, align 4
  %call3 = call ptr @strerror(i32 noundef %5) #10
  %call4 = call i32 (ptr, ptr, ...) @fprintf(ptr noundef %3, ptr noundef @.str.16, i64 noundef %4, ptr noundef %call3) #10
  call void @exit(i32 noundef 1) #7
  unreachable

if.end:                                           ; preds = %entry
  %6 = load ptr, ptr %m, align 8
  %7 = load i64, ptr %bytes, align 8
  %8 = load i32, ptr %passes.addr, align 4
  %call5 = call i32 @memtest_test(ptr noundef %6, i64 noundef %7, i32 noundef %8, i32 noundef 1)
  %9 = load ptr, ptr %m, align 8
  call void @free(ptr noundef %9) #10
  ret void
}