; Function Attrs: nounwind uwtable
define dso_local void @memtest_alloc_and_test(i64 noundef %megabytes, i32 noundef %passes) local_unnamed_addr #2 {
entry:
  %mul1 = shl i64 %megabytes, 20
  %call = tail call noalias ptr @malloc(i64 noundef %mul1) #15
  %cmp = icmp eq ptr %call, null
  br i1 %cmp, label %if.then, label %if.end

if.then:                                          ; preds = %entry
  %0 = load ptr, ptr @stderr, align 8
  %call2 = tail call ptr @__errno_location() #16
  %1 = load i32, ptr %call2, align 4
  %call3 = tail call ptr @strerror(i32 noundef %1) #14
  %call4 = tail call i32 (ptr, ptr, ...) @fprintf(ptr noundef %0, ptr noundef nonnull @.str.16, i64 noundef %megabytes, ptr noundef %call3) #17
  tail call void @exit(i32 noundef 1) #13
  unreachable

if.end:                                           ; preds = %entry
  %call5 = tail call i32 @memtest_test(ptr noundef nonnull %call, i64 noundef %mul1, i32 noundef %passes, i32 noundef 1)
  tail call void @free(ptr noundef nonnull %call) #14
  ret void
}